target datalayout = "e-m:e-p270:32:32-p271:32:32-p272:64:64-i64:64-i128:128-f80:128-n8:16:32:64-S128"
target triple = "x86_64-pc-linux-gnu"

%struct.lexbor_shs_hash_t = type { i32, i32, i32 }

@lxb_encoding_multi_hash_gb18030 = external constant [23941 x %struct.lexbor_shs_hash_t], align 16

; Function Attrs: nounwind uwtable
define internal ptr @lexbor_shs_hash_get_static(ptr noundef %0, i64 noundef %1, i32 noundef %2) #0 {
  %4 = alloca ptr, align 8
  %5 = alloca ptr, align 8
  %6 = alloca i64, align 8
  %7 = alloca i32, align 4
  %8 = alloca ptr, align 8
  store ptr %0, ptr %5, align 8
  store i64 %1, ptr %6, align 8
  store i32 %2, ptr %7, align 4
  %9 = load ptr, ptr %5, align 8
  %10 = load i32, ptr %7, align 4
  %11 = zext i32 %10 to i64
  %12 = load i64, ptr %6, align 8
  %13 = urem i64 %11, %12
  %14 = add i64 %13, 1
  %15 = getelementptr inbounds %struct.lexbor_shs_hash_t, ptr %9, i64 %14
  store ptr %15, ptr %8, align 8
  br label %16

16:                                               ; preds = %31, %3
  %17 = load ptr, ptr %8, align 8
  %18 = getelementptr inbounds %struct.lexbor_shs_hash_t, ptr %17, i32 0, i32 0
  %19 = load i32, ptr %18, align 4
  %20 = load i32, ptr %7, align 4
  %21 = icmp eq i32 %19, %20
  br i1 %21, label %22, label %24

22:                                               ; preds = %16
  %23 = load ptr, ptr %8, align 8
  store ptr %23, ptr %4, align 8
  br label %36

24:                                               ; preds = %16
  %25 = load ptr, ptr %5, align 8
  %26 = load ptr, ptr %8, align 8
  %27 = getelementptr inbounds %struct.lexbor_shs_hash_t, ptr %26, i32 0, i32 2
  %28 = load i32, ptr %27, align 4
  %29 = zext i32 %28 to i64
  %30 = getelementptr inbounds %struct.lexbor_shs_hash_t, ptr %25, i64 %29
  store ptr %30, ptr %8, align 8
  br label %31

31:                                               ; preds = %24
  %32 = load ptr, ptr %8, align 8
  %33 = load ptr, ptr %5, align 8
  %34 = icmp ne ptr %32, %33
  br i1 %34, label %16, label %35

35:                                               ; preds = %31
  store ptr null, ptr %4, align 8
  br label %36

36:                                               ; preds = %35, %22
  %37 = load ptr, ptr %4, align 8
  ret ptr %37
}

; Function Attrs: nounwind uwtable
define hidden signext i8 @lxb_encoding_encode_gbk_single(ptr noundef %0, ptr noundef %1, ptr noundef %2, i32 noundef %3) #0 {
  %5 = alloca i8, align 1
  %6 = alloca ptr, align 8
  %7 = alloca ptr, align 8
  %8 = alloca ptr, align 8
  %9 = alloca i32, align 4
  %10 = alloca ptr, align 8
  store ptr %0, ptr %6, align 8
  store ptr %1, ptr %7, align 8
  store ptr %2, ptr %8, align 8
  store i32 %3, ptr %9, align 4
  %11 = load i32, ptr %9, align 4
  %12 = icmp ult i32 %11, 128
  br i1 %12, label %13, label %19

13:                                               ; preds = %4
  %14 = load i32, ptr %9, align 4
  %15 = trunc i32 %14 to i8
  %16 = load ptr, ptr %7, align 8
  %17 = load ptr, ptr %16, align 8
  %18 = getelementptr inbounds i8, ptr %17, i32 1
  store ptr %18, ptr %16, align 8
  store i8 %15, ptr %17, align 1
  store i8 1, ptr %5, align 1
  br label %91

19:                                               ; preds = %4
  %20 = load i32, ptr %9, align 4
  %21 = icmp eq i32 %20, 58853
  br i1 %21, label %22, label %23

22:                                               ; preds = %19
  store i8 -1, ptr %5, align 1
  br label %91

23:                                               ; preds = %19
  %24 = load i32, ptr %9, align 4
  %25 = icmp eq i32 %24, 8364
  br i1 %25, label %26, label %30

26:                                               ; preds = %23
  %27 = load ptr, ptr %7, align 8
  %28 = load ptr, ptr %27, align 8
  %29 = getelementptr inbounds i8, ptr %28, i32 1
  store ptr %29, ptr %27, align 8
  store i8 -128, ptr %28, align 1
  store i8 1, ptr %5, align 1
  br label %91

30:                                               ; preds = %23
  %31 = load i32, ptr %9, align 4
  %32 = call ptr @lexbor_shs_hash_get_static(ptr noundef @lxb_encoding_multi_hash_gb18030, i64 noundef 19950, i32 noundef %31)
  store ptr %32, ptr %10, align 8
  %33 = load ptr, ptr %10, align 8
  %34 = icmp ne ptr %33, null
  br i1 %34, label %35, label %90

35:                                               ; preds = %30
  %36 = load ptr, ptr %7, align 8
  %37 = load ptr, ptr %36, align 8
  %38 = getelementptr inbounds i8, ptr %37, i64 2
  %39 = load ptr, ptr %8, align 8
  %40 = icmp ugt ptr %38, %39
  br i1 %40, label %41, label %42

41:                                               ; preds = %35
  store i8 -2, ptr %5, align 1
  br label %91

42:                                               ; preds = %35
  %43 = load ptr, ptr %10, align 8
  %44 = getelementptr inbounds %struct.lexbor_shs_hash_t, ptr %43, i32 0, i32 1
  %45 = load i32, ptr %44, align 4
  %46 = zext i32 %45 to i64
  %47 = trunc i64 %46 to i8
  %48 = zext i8 %47 to i32
  %49 = sdiv i32 %48, 190
  %50 = add nsw i32 %49, 129
  %51 = trunc i32 %50 to i8
  %52 = load ptr, ptr %7, align 8
  %53 = load ptr, ptr %52, align 8
  %54 = getelementptr inbounds i8, ptr %53, i32 1
  store ptr %54, ptr %52, align 8
  store i8 %51, ptr %53, align 1
  %55 = load ptr, ptr %10, align 8
  %56 = getelementptr inbounds %struct.lexbor_shs_hash_t, ptr %55, i32 0, i32 1
  %57 = load i32, ptr %56, align 4
  %58 = zext i32 %57 to i64
  %59 = trunc i64 %58 to i8
  %60 = zext i8 %59 to i32
  %61 = srem i32 %60, 190
  %62 = icmp slt i32 %61, 63
  br i1 %62, label %63, label %76

63:                                               ; preds = %42
  %64 = load ptr, ptr %10, align 8
  %65 = getelementptr inbounds %struct.lexbor_shs_hash_t, ptr %64, i32 0, i32 1
  %66 = load i32, ptr %65, align 4
  %67 = zext i32 %66 to i64
  %68 = trunc i64 %67 to i8
  %69 = zext i8 %68 to i32
  %70 = srem i32 %69, 190
  %71 = add nsw i32 %70, 64
  %72 = trunc i32 %71 to i8
  %73 = load ptr, ptr %7, align 8
  %74 = load ptr, ptr %73, align 8
  %75 = getelementptr inbounds i8, ptr %74, i32 1
  store ptr %75, ptr %73, align 8
  store i8 %72, ptr %74, align 1
  br label %89

76:                                               ; preds = %42
  %77 = load ptr, ptr %10, align 8
  %78 = getelementptr inbounds %struct.lexbor_shs_hash_t, ptr %77, i32 0, i32 1
  %79 = load i32, ptr %78, align 4
  %80 = zext i32 %79 to i64
  %81 = trunc i64 %80 to i8
  %82 = zext i8 %81 to i32
  %83 = srem i32 %82, 190
  %84 = add nsw i32 %83, 65
  %85 = trunc i32 %84 to i8
  %86 = load ptr, ptr %7, align 8
  %87 = load ptr, ptr %86, align 8
  %88 = getelementptr inbounds i8, ptr %87, i32 1
  store ptr %88, ptr %86, align 8
  store i8 %85, ptr %87, align 1
  br label %89

89:                                               ; preds = %76, %63
  store i8 2, ptr %5, align 1
  br label %91

90:                                               ; preds = %30
  store i8 -1, ptr %5, align 1
  br label %91

91:                                               ; preds = %90, %89, %41, %26, %22, %13
  %92 = load i8, ptr %5, align 1
  ret i8 %92
}