; Function Attrs: nofree norecurse nosync nounwind memory(write, argmem: readwrite, inaccessiblemem: none) uwtable
define hidden noundef signext i8 @lxb_encoding_encode_gbk_single(ptr nocapture noundef readnone %0, ptr nocapture noundef %1, ptr noundef readnone %2, i32 noundef %3) local_unnamed_addr #6 {
  %5 = icmp ult i32 %3, 128
  br i1 %5, label %6, label %10

6:                                                ; preds = %4
  %7 = trunc i32 %3 to i8
  %8 = load ptr, ptr %1, align 8
  %9 = getelementptr inbounds i8, ptr %8, i64 1
  store ptr %9, ptr %1, align 8
  store i8 %7, ptr %8, align 1
  br label %lexbor_shs_hash_get_static.exit.thread

10:                                               ; preds = %4
  switch i32 %3, label %14 [
    i32 58853, label %lexbor_shs_hash_get_static.exit.thread
    i32 8364, label %11
  ]

11:                                               ; preds = %10
  %12 = load ptr, ptr %1, align 8
  %13 = getelementptr inbounds i8, ptr %12, i64 1
  store ptr %13, ptr %1, align 8
  store i8 -128, ptr %12, align 1
  br label %lexbor_shs_hash_get_static.exit.thread

14:                                               ; preds = %10
  %15 = urem i32 %3, 19950
  %.zext = zext nneg i32 %15 to i64
  %16 = getelementptr %struct.lexbor_shs_hash_t, ptr @lxb_encoding_multi_hash_gb18030, i64 %.zext
  %17 = getelementptr i8, ptr %16, i64 12
  br label %18

18:                                               ; preds = %21, %14
  %.0.i = phi ptr [ %17, %14 ], [ %25, %21 ]
  %19 = load i32, ptr %.0.i, align 4
  %20 = icmp eq i32 %19, %3
  br i1 %20, label %lexbor_shs_hash_get_static.exit, label %21

21:                                               ; preds = %18
  %22 = getelementptr inbounds i8, ptr %.0.i, i64 8
  %23 = load i32, ptr %22, align 4
  %24 = zext i32 %23 to i64
  %25 = getelementptr inbounds %struct.lexbor_shs_hash_t, ptr @lxb_encoding_multi_hash_gb18030, i64 %24
  %.not.i = icmp eq i32 %23, 0
  br i1 %.not.i, label %lexbor_shs_hash_get_static.exit.thread, label %18

lexbor_shs_hash_get_static.exit:                  ; preds = %18
  %26 = load ptr, ptr %1, align 8
  %27 = getelementptr inbounds i8, ptr %26, i64 2
  %28 = icmp ugt ptr %27, %2
  br i1 %28, label %lexbor_shs_hash_get_static.exit.thread, label %29

29:                                               ; preds = %lexbor_shs_hash_get_static.exit
  %30 = getelementptr inbounds i8, ptr %.0.i, i64 4
  %31 = load i32, ptr %30, align 4
  %.fr = freeze i32 %31
  %32 = and i32 %.fr, 254
  %.cmp = icmp ugt i32 %32, 189
  %33 = select i1 %.cmp, i8 -126, i8 -127
  %34 = getelementptr inbounds i8, ptr %26, i64 1
  store ptr %34, ptr %1, align 8
  store i8 %33, ptr %26, align 1
  %35 = and i32 %.fr, 255
  %.urem = add nsw i32 %35, -190
  %.cmp23 = icmp ult i32 %35, 190
  %36 = select i1 %.cmp23, i32 %35, i32 %.urem
  %37 = icmp ult i32 %36, 63
  %38 = trunc i32 %36 to i8
  %39 = load ptr, ptr %1, align 8
  %40 = getelementptr inbounds i8, ptr %39, i64 1
  store ptr %40, ptr %1, align 8
  br i1 %37, label %41, label %43

41:                                               ; preds = %29
  %42 = or disjoint i8 %38, 64
  store i8 %42, ptr %39, align 1
  br label %lexbor_shs_hash_get_static.exit.thread

43:                                               ; preds = %29
  %44 = add nuw i8 %38, 65
  store i8 %44, ptr %39, align 1
  br label %lexbor_shs_hash_get_static.exit.thread

lexbor_shs_hash_get_static.exit.thread:           ; preds = %21, %41, %43, %lexbor_shs_hash_get_static.exit, %10, %11, %6
  %.0 = phi i8 [ 1, %6 ], [ 1, %11 ], [ -1, %10 ], [ -2, %lexbor_shs_hash_get_static.exit ], [ 2, %43 ], [ 2, %41 ], [ -1, %21 ]
  ret i8 %.0
}